; Function Attrs: mustprogress uwtable
define dso_local void @_ZN28cmExportInstallFileGenerator23GetConfigImportFileGlobB5cxx11Ev(ptr dead_on_unwind noalias writable sret(%"class.std::__cxx11::basic_string") align 8 %0, ptr noundef nonnull align 8 dereferenceable(496) %1) local_unnamed_addr #3 align 2 personality ptr @__gxx_personality_v0 {
  %3 = alloca [3 x %"struct.std::pair.646"], align 8
  %4 = getelementptr inbounds i8, ptr %1, i64 136
  %5 = getelementptr inbounds i8, ptr %1, i64 168
  call void @llvm.lifetime.start.p0(i64 72, ptr nonnull %3)
  %6 = tail call { i64, ptr } @_ZNKSt7__cxx1112basic_stringIcSt11char_traitsIcESaIcEEcvSt17basic_string_viewIcS2_EEv(ptr noundef nonnull align 8 dereferenceable(32) %4) #18, !noalias !5
  %7 = extractvalue { i64, ptr } %6, 0
  %8 = extractvalue { i64, ptr } %6, 1
  store i64 %7, ptr %3, align 8, !alias.scope !8, !noalias !5
  %.sroa.2.0..sroa_idx.i.i = getelementptr inbounds i8, ptr %3, i64 8
  store ptr %8, ptr %.sroa.2.0..sroa_idx.i.i, align 8, !alias.scope !8, !noalias !5
  %9 = getelementptr inbounds i8, ptr %3, i64 16
  store ptr null, ptr %9, align 8, !alias.scope !8, !noalias !5
  %10 = getelementptr inbounds i8, ptr %3, i64 24
  store i64 2, ptr %10, align 8, !alias.scope !11, !noalias !5
  %.sroa.2.0..sroa_idx.i7.i = getelementptr inbounds i8, ptr %3, i64 32
  store ptr @.str, ptr %.sroa.2.0..sroa_idx.i7.i, align 8, !alias.scope !11, !noalias !5
  %11 = getelementptr inbounds i8, ptr %3, i64 40
  store ptr null, ptr %11, align 8, !alias.scope !11, !noalias !5
  %12 = getelementptr inbounds i8, ptr %3, i64 48
  %13 = tail call { i64, ptr } @_ZNKSt7__cxx1112basic_stringIcSt11char_traitsIcESaIcEEcvSt17basic_string_viewIcS2_EEv(ptr noundef nonnull align 8 dereferenceable(32) %5) #18, !noalias !5
  %14 = extractvalue { i64, ptr } %13, 0
  %15 = extractvalue { i64, ptr } %13, 1
  store i64 %14, ptr %12, align 8, !alias.scope !14, !noalias !5
  %.sroa.2.0..sroa_idx.i16.i = getelementptr inbounds i8, ptr %3, i64 56
  store ptr %15, ptr %.sroa.2.0..sroa_idx.i16.i, align 8, !alias.scope !14, !noalias !5
  %16 = getelementptr inbounds i8, ptr %3, i64 64
  store ptr null, ptr %16, align 8, !alias.scope !14, !noalias !5
  call void @_Z10cmCatViewsSt16initializer_listISt4pairISt17basic_string_viewIcSt11char_traitsIcEEPNSt7__cxx1112basic_stringIcS3_SaIcEEEEE(ptr dead_on_unwind writable sret(%"class.std::__cxx11::basic_string") align 8 %0, ptr nonnull %3, i64 3)
  call void @llvm.lifetime.end.p0(i64 72, ptr nonnull %3)
  ret void
}